target datalayout = "e-m:e-p270:32:32-p271:32:32-p272:64:64-i64:64-i128:128-f80:128-n8:16:32:64-S128"
target triple = "x86_64-pc-linux-gnu"

%struct.Gia_Man_t_ = type { ptr, ptr, i32, i32, i32, i32, ptr, ptr, i32, i32, i32, ptr, ptr, %struct.Vec_Int_t_, %struct.Vec_Int_t_, i32, i32, i32, %struct.Vec_Int_t_, ptr, ptr, ptr, i32, i32, i32, i32, ptr, ptr, ptr, ptr, ptr, i32, i32, ptr, i32, ptr, ptr, ptr, ptr, ptr, ptr, ptr, ptr, ptr, ptr, ptr, ptr, ptr, ptr, ptr, ptr, ptr, ptr, %struct.Vec_Int_t_, %struct.Vec_Int_t_, ptr, ptr, ptr, ptr, ptr, ptr, ptr, ptr, ptr, ptr, ptr, ptr, ptr, ptr, ptr, ptr, ptr, ptr, ptr, ptr, ptr, i32, float, float, ptr, ptr, i32, ptr, ptr, ptr, ptr, ptr, ptr, ptr, ptr, ptr, ptr, ptr, ptr, ptr, ptr, ptr, i64, i64, ptr, ptr, i32, i32, i32, i32, i32, i32, i32, i32, i32, i32, i32, i32, ptr, ptr, ptr, ptr, ptr, ptr, ptr, ptr, i32, i32, i32, ptr, i32, i32, ptr, ptr, ptr, ptr, ptr, ptr, i32, i32, ptr, %struct.Vec_Int_t_, %struct.Vec_Int_t_, %struct.Vec_Int_t_, ptr, ptr, ptr, i32, i32, i32, i32, ptr, ptr, ptr, ptr, ptr }
%struct.Vec_Int_t_ = type { i32, i32, ptr }
%struct.Vec_Flt_t_ = type { i32, i32, ptr }

; Function Attrs: inlinehint nounwind uwtable
define internal float @Vec_FltEntry(ptr noundef %0, i32 noundef %1) #2 {
  %3 = alloca ptr, align 8
  %4 = alloca i32, align 4
  store ptr %0, ptr %3, align 8, !tbaa !99
  store i32 %1, ptr %4, align 4, !tbaa !8
  %5 = load ptr, ptr %3, align 8, !tbaa !99
  %6 = getelementptr inbounds nuw %struct.Vec_Flt_t_, ptr %5, i32 0, i32 2
  %7 = load ptr, ptr %6, align 8, !tbaa !100
  %8 = load i32, ptr %4, align 4, !tbaa !8
  %9 = sext i32 %8 to i64
  %10 = getelementptr inbounds float, ptr %7, i64 %9
  %11 = load float, ptr %10, align 4, !tbaa !14
  ret float %11
}

; Function Attrs: inlinehint nounwind uwtable
define internal ptr @Vec_IntEntryP(ptr noundef %0, i32 noundef %1) #2 {
  %3 = alloca ptr, align 8
  %4 = alloca i32, align 4
  store ptr %0, ptr %3, align 8, !tbaa !63
  store i32 %1, ptr %4, align 4, !tbaa !8
  %5 = load ptr, ptr %3, align 8, !tbaa !63
  %6 = getelementptr inbounds nuw %struct.Vec_Int_t_, ptr %5, i32 0, i32 2
  %7 = load ptr, ptr %6, align 8, !tbaa !66
  %8 = load i32, ptr %4, align 4, !tbaa !8
  %9 = sext i32 %8 to i64
  %10 = getelementptr inbounds i32, ptr %7, i64 %9
  ret ptr %10
}

; Function Attrs: inlinehint nounwind uwtable
define internal i32 @Vec_IntEntry(ptr noundef %0, i32 noundef %1) #2 {
  %3 = alloca ptr, align 8
  %4 = alloca i32, align 4
  store ptr %0, ptr %3, align 8, !tbaa !63
  store i32 %1, ptr %4, align 4, !tbaa !8
  %5 = load ptr, ptr %3, align 8, !tbaa !63
  %6 = getelementptr inbounds nuw %struct.Vec_Int_t_, ptr %5, i32 0, i32 2
  %7 = load ptr, ptr %6, align 8, !tbaa !66
  %8 = load i32, ptr %4, align 4, !tbaa !8
  %9 = sext i32 %8 to i64
  %10 = getelementptr inbounds i32, ptr %7, i64 %9
  %11 = load i32, ptr %10, align 4, !tbaa !8
  ret i32 %11
}

; Function Attrs: inlinehint nounwind uwtable
define internal float @Gia_ObjTimeArrival(ptr noundef %0, i32 noundef %1) #2 {
  %3 = alloca ptr, align 8
  %4 = alloca i32, align 4
  store ptr %0, ptr %3, align 8, !tbaa !3
  store i32 %1, ptr %4, align 4, !tbaa !8
  %5 = load ptr, ptr %3, align 8, !tbaa !3
  %6 = getelementptr inbounds nuw %struct.Gia_Man_t_, ptr %5, i32 0, i32 94
  %7 = load ptr, ptr %6, align 8, !tbaa !39
  %8 = load i32, ptr %4, align 4, !tbaa !8
  %9 = mul nsw i32 3, %8
  %10 = add nsw i32 %9, 0
  %11 = call float @Vec_FltEntry(ptr noundef %7, i32 noundef %10)
  ret float %11
}

; Function Attrs: inlinehint nounwind uwtable
define internal ptr @Gia_ObjLutFanins(ptr noundef %0, i32 noundef %1) #2 {
  %3 = alloca ptr, align 8
  %4 = alloca i32, align 4
  store ptr %0, ptr %3, align 8, !tbaa !3
  store i32 %1, ptr %4, align 4, !tbaa !8
  %5 = load ptr, ptr %3, align 8, !tbaa !3
  %6 = getelementptr inbounds nuw %struct.Gia_Man_t_, ptr %5, i32 0, i32 37
  %7 = load ptr, ptr %6, align 8, !tbaa !21
  %8 = load ptr, ptr %3, align 8, !tbaa !3
  %9 = getelementptr inbounds nuw %struct.Gia_Man_t_, ptr %8, i32 0, i32 37
  %10 = load ptr, ptr %9, align 8, !tbaa !21
  %11 = load i32, ptr %4, align 4, !tbaa !8
  %12 = call i32 @Vec_IntEntry(ptr noundef %10, i32 noundef %11)
  %13 = call ptr @Vec_IntEntryP(ptr noundef %7, i32 noundef %12)
  %14 = getelementptr inbounds i32, ptr %13, i64 1
  ret ptr %14
}

; Function Attrs: inlinehint nounwind uwtable
define internal i32 @Gia_ObjLutSize(ptr noundef %0, i32 noundef %1) #2 {
  %3 = alloca ptr, align 8
  %4 = alloca i32, align 4
  store ptr %0, ptr %3, align 8, !tbaa !3
  store i32 %1, ptr %4, align 4, !tbaa !8
  %5 = load ptr, ptr %3, align 8, !tbaa !3
  %6 = getelementptr inbounds nuw %struct.Gia_Man_t_, ptr %5, i32 0, i32 37
  %7 = load ptr, ptr %6, align 8, !tbaa !21
  %8 = load ptr, ptr %3, align 8, !tbaa !3
  %9 = getelementptr inbounds nuw %struct.Gia_Man_t_, ptr %8, i32 0, i32 37
  %10 = load ptr, ptr %9, align 8, !tbaa !21
  %11 = load i32, ptr %4, align 4, !tbaa !8
  %12 = call i32 @Vec_IntEntry(ptr noundef %10, i32 noundef %11)
  %13 = call i32 @Vec_IntEntry(ptr noundef %7, i32 noundef %12)
  ret i32 %13
}

; Function Attrs: nounwind uwtable
define void @Gia_LutDelayTraceSortPins(ptr noundef %0, i32 noundef %1, ptr noundef %2, ptr noundef %3) #0 {
  %5 = alloca ptr, align 8
  %6 = alloca i32, align 4
  %7 = alloca ptr, align 8
  %8 = alloca ptr, align 8
  %9 = alloca i32, align 4
  %10 = alloca i32, align 4
  %11 = alloca i32, align 4
  %12 = alloca i32, align 4
  %13 = alloca i32, align 4
  store ptr %0, ptr %5, align 8, !tbaa !3
  store i32 %1, ptr %6, align 4, !tbaa !8
  store ptr %2, ptr %7, align 8, !tbaa !10
  store ptr %3, ptr %8, align 8, !tbaa !12
  call void @llvm.lifetime.start.p0(i64 4, ptr %9) #9
  call void @llvm.lifetime.start.p0(i64 4, ptr %10) #9
  call void @llvm.lifetime.start.p0(i64 4, ptr %11) #9
  call void @llvm.lifetime.start.p0(i64 4, ptr %12) #9
  call void @llvm.lifetime.start.p0(i64 4, ptr %13) #9
  store i32 0, ptr %10, align 4, !tbaa !8
  br label %14

14:                                               ; preds = %43, %4
  %15 = load i32, ptr %10, align 4, !tbaa !8
  %16 = load ptr, ptr %5, align 8, !tbaa !3
  %17 = load i32, ptr %6, align 4, !tbaa !8
  %18 = call i32 @Gia_ObjLutSize(ptr noundef %16, i32 noundef %17)
  %19 = icmp slt i32 %15, %18
  br i1 %19, label %20, label %28

20:                                               ; preds = %14
  %21 = load ptr, ptr %5, align 8, !tbaa !3
  %22 = load i32, ptr %6, align 4, !tbaa !8
  %23 = call ptr @Gia_ObjLutFanins(ptr noundef %21, i32 noundef %22)
  %24 = load i32, ptr %10, align 4, !tbaa !8
  %25 = sext i32 %24 to i64
  %26 = getelementptr inbounds i32, ptr %23, i64 %25
  %27 = load i32, ptr %26, align 4, !tbaa !8
  store i32 %27, ptr %9, align 4, !tbaa !8
  br label %28

28:                                               ; preds = %20, %14
  %29 = phi i1 [ false, %14 ], [ true, %20 ]
  br i1 %29, label %30, label %46

30:                                               ; preds = %28
  %31 = load i32, ptr %10, align 4, !tbaa !8
  %32 = load ptr, ptr %7, align 8, !tbaa !10
  %33 = load i32, ptr %10, align 4, !tbaa !8
  %34 = sext i32 %33 to i64
  %35 = getelementptr inbounds i32, ptr %32, i64 %34
  store i32 %31, ptr %35, align 4, !tbaa !8
  %36 = load ptr, ptr %5, align 8, !tbaa !3
  %37 = load i32, ptr %9, align 4, !tbaa !8
  %38 = call float @Gia_ObjTimeArrival(ptr noundef %36, i32 noundef %37)
  %39 = load ptr, ptr %8, align 8, !tbaa !12
  %40 = load i32, ptr %10, align 4, !tbaa !8
  %41 = sext i32 %40 to i64
  %42 = getelementptr inbounds float, ptr %39, i64 %41
  store float %38, ptr %42, align 4, !tbaa !14
  br label %43

43:                                               ; preds = %30
  %44 = load i32, ptr %10, align 4, !tbaa !8
  %45 = add nsw i32 %44, 1
  store i32 %45, ptr %10, align 4, !tbaa !8
  br label %14, !llvm.loop !16

46:                                               ; preds = %28
  store i32 0, ptr %10, align 4, !tbaa !8
  br label %47

47:                                               ; preds = %115, %46
  %48 = load i32, ptr %10, align 4, !tbaa !8
  %49 = load ptr, ptr %5, align 8, !tbaa !3
  %50 = load i32, ptr %6, align 4, !tbaa !8
  %51 = call i32 @Gia_ObjLutSize(ptr noundef %49, i32 noundef %50)
  %52 = sub nsw i32 %51, 1
  %53 = icmp slt i32 %48, %52
  br i1 %53, label %54, label %118

54:                                               ; preds = %47
  %55 = load i32, ptr %10, align 4, !tbaa !8
  store i32 %55, ptr %12, align 4, !tbaa !8
  %56 = load i32, ptr %10, align 4, !tbaa !8
  %57 = add nsw i32 %56, 1
  store i32 %57, ptr %11, align 4, !tbaa !8
  br label %58

58:                                               ; preds = %87, %54
  %59 = load i32, ptr %11, align 4, !tbaa !8
  %60 = load ptr, ptr %5, align 8, !tbaa !3
  %61 = load i32, ptr %6, align 4, !tbaa !8
  %62 = call i32 @Gia_ObjLutSize(ptr noundef %60, i32 noundef %61)
  %63 = icmp slt i32 %59, %62
  br i1 %63, label %64, label %90

64:                                               ; preds = %58
  %65 = load ptr, ptr %8, align 8, !tbaa !12
  %66 = load ptr, ptr %7, align 8, !tbaa !10
  %67 = load i32, ptr %11, align 4, !tbaa !8
  %68 = sext i32 %67 to i64
  %69 = getelementptr inbounds i32, ptr %66, i64 %68
  %70 = load i32, ptr %69, align 4, !tbaa !8
  %71 = sext i32 %70 to i64
  %72 = getelementptr inbounds float, ptr %65, i64 %71
  %73 = load float, ptr %72, align 4, !tbaa !14
  %74 = load ptr, ptr %8, align 8, !tbaa !12
  %75 = load ptr, ptr %7, align 8, !tbaa !10
  %76 = load i32, ptr %12, align 4, !tbaa !8
  %77 = sext i32 %76 to i64
  %78 = getelementptr inbounds i32, ptr %75, i64 %77
  %79 = load i32, ptr %78, align 4, !tbaa !8
  %80 = sext i32 %79 to i64
  %81 = getelementptr inbounds float, ptr %74, i64 %80
  %82 = load float, ptr %81, align 4, !tbaa !14
  %83 = fcmp ogt float %73, %82
  br i1 %83, label %84, label %86

84:                                               ; preds = %64
  %85 = load i32, ptr %11, align 4, !tbaa !8
  store i32 %85, ptr %12, align 4, !tbaa !8
  br label %86

86:                                               ; preds = %84, %64
  br label %87

87:                                               ; preds = %86
  %88 = load i32, ptr %11, align 4, !tbaa !8
  %89 = add nsw i32 %88, 1
  store i32 %89, ptr %11, align 4, !tbaa !8
  br label %58, !llvm.loop !18

90:                                               ; preds = %58
  %91 = load i32, ptr %12, align 4, !tbaa !8
  %92 = load i32, ptr %10, align 4, !tbaa !8
  %93 = icmp eq i32 %91, %92
  br i1 %93, label %94, label %95

94:                                               ; preds = %90
  br label %115

95:                                               ; preds = %90
  %96 = load ptr, ptr %7, align 8, !tbaa !10
  %97 = load i32, ptr %10, align 4, !tbaa !8
  %98 = sext i32 %97 to i64
  %99 = getelementptr inbounds i32, ptr %96, i64 %98
  %100 = load i32, ptr %99, align 4, !tbaa !8
  store i32 %100, ptr %13, align 4, !tbaa !8
  %101 = load ptr, ptr %7, align 8, !tbaa !10
  %102 = load i32, ptr %12, align 4, !tbaa !8
  %103 = sext i32 %102 to i64
  %104 = getelementptr inbounds i32, ptr %101, i64 %103
  %105 = load i32, ptr %104, align 4, !tbaa !8
  %106 = load ptr, ptr %7, align 8, !tbaa !10
  %107 = load i32, ptr %10, align 4, !tbaa !8
  %108 = sext i32 %107 to i64
  %109 = getelementptr inbounds i32, ptr %106, i64 %108
  store i32 %105, ptr %109, align 4, !tbaa !8
  %110 = load i32, ptr %13, align 4, !tbaa !8
  %111 = load ptr, ptr %7, align 8, !tbaa !10
  %112 = load i32, ptr %12, align 4, !tbaa !8
  %113 = sext i32 %112 to i64
  %114 = getelementptr inbounds i32, ptr %111, i64 %113
  store i32 %110, ptr %114, align 4, !tbaa !8
  br label %115

115:                                              ; preds = %95, %94
  %116 = load i32, ptr %10, align 4, !tbaa !8
  %117 = add nsw i32 %116, 1
  store i32 %117, ptr %10, align 4, !tbaa !8
  br label %47, !llvm.loop !19

118:                                              ; preds = %47
  store i32 1, ptr %10, align 4, !tbaa !8
  br label %119

119:                                              ; preds = %126, %118
  %120 = load i32, ptr %10, align 4, !tbaa !8
  %121 = load ptr, ptr %5, align 8, !tbaa !3
  %122 = load i32, ptr %6, align 4, !tbaa !8
  %123 = call i32 @Gia_ObjLutSize(ptr noundef %121, i32 noundef %122)
  %124 = icmp slt i32 %120, %123
  br i1 %124, label %125, label %129

125:                                              ; preds = %119
  br label %126

126:                                              ; preds = %125
  %127 = load i32, ptr %10, align 4, !tbaa !8
  %128 = add nsw i32 %127, 1
  store i32 %128, ptr %10, align 4, !tbaa !8
  br label %119, !llvm.loop !20

129:                                              ; preds = %119
  call void @llvm.lifetime.end.p0(i64 4, ptr %13) #9
  call void @llvm.lifetime.end.p0(i64 4, ptr %12) #9
  call void @llvm.lifetime.end.p0(i64 4, ptr %11) #9
  call void @llvm.lifetime.end.p0(i64 4, ptr %10) #9
  call void @llvm.lifetime.end.p0(i64 4, ptr %9) #9
  ret void
}