; Function Attrs: nofree norecurse nosync nounwind memory(read, argmem: readwrite, inaccessiblemem: none) uwtable
define void @Gia_LutDelayTraceSortPins(ptr noundef readonly captures(none) %0, i32 noundef %1, ptr noundef captures(none) %2, ptr noundef captures(none) %3) local_unnamed_addr #0 {
  %5 = getelementptr i8, ptr %0, i64 264
  %.val = load ptr, ptr %5, align 8, !tbaa !3
  %6 = getelementptr i8, ptr %.val, i64 8
  %.val.val = load ptr, ptr %6, align 8, !tbaa !28
  %7 = sext i32 %1 to i64
  %8 = getelementptr inbounds i32, ptr %.val.val, i64 %7
  %9 = load i32, ptr %8, align 4, !tbaa !29
  %10 = sext i32 %9 to i64
  %11 = getelementptr inbounds i32, ptr %.val.val, i64 %10
  %12 = load i32, ptr %11, align 4, !tbaa !29
  %13 = icmp sgt i32 %12, 0
  br i1 %13, label %.lr.ph, label %.preheader

.lr.ph:                                           ; preds = %4
  %14 = getelementptr i8, ptr %0, i64 728
  %.val52 = load ptr, ptr %14, align 8, !tbaa !30
  %15 = getelementptr i8, ptr %.val52, i64 8
  %.val52.val = load ptr, ptr %15, align 8, !tbaa !31
  %invariant.gep = getelementptr i8, ptr %.val.val, i64 4
  br label %17

.critedge.preheader:                              ; preds = %17
  %16 = icmp sgt i32 %31, 1
  br i1 %16, label %.lr.ph64, label %.preheader

17:                                               ; preds = %.lr.ph, %17
  %indvars.iv = phi i64 [ 0, %.lr.ph ], [ %indvars.iv.next, %17 ]
  %18 = phi i64 [ %10, %.lr.ph ], [ %29, %17 ]
  %gep = getelementptr i32, ptr %invariant.gep, i64 %18
  %19 = getelementptr inbounds nuw i32, ptr %gep, i64 %indvars.iv
  %20 = load i32, ptr %19, align 4, !tbaa !29
  %21 = getelementptr inbounds nuw i32, ptr %2, i64 %indvars.iv
  %22 = trunc nuw nsw i64 %indvars.iv to i32
  store i32 %22, ptr %21, align 4, !tbaa !29
  %23 = mul nsw i32 %20, 3
  %24 = sext i32 %23 to i64
  %25 = getelementptr inbounds float, ptr %.val52.val, i64 %24
  %26 = load float, ptr %25, align 4, !tbaa !34
  %27 = getelementptr inbounds nuw float, ptr %3, i64 %indvars.iv
  store float %26, ptr %27, align 4, !tbaa !34
  %indvars.iv.next = add nuw nsw i64 %indvars.iv, 1
  %28 = load i32, ptr %8, align 4, !tbaa !29
  %29 = sext i32 %28 to i64
  %30 = getelementptr inbounds i32, ptr %.val.val, i64 %29
  %31 = load i32, ptr %30, align 4, !tbaa !29
  %32 = sext i32 %31 to i64
  %33 = icmp slt i64 %indvars.iv.next, %32
  br i1 %33, label %17, label %.critedge.preheader, !llvm.loop !35

.preheader:                                       ; preds = %.critedge, %4, %.critedge.preheader
  ret void

.lr.ph64:                                         ; preds = %.critedge.preheader, %.critedge
  %34 = phi i32 [ %60, %.critedge ], [ %28, %.critedge.preheader ]
  %indvars.iv73 = phi i64 [ %indvars.iv.next74, %.critedge ], [ 0, %.critedge.preheader ]
  %indvars.iv68 = phi i64 [ %indvars.iv.next69, %.critedge ], [ 1, %.critedge.preheader ]
  %35 = phi i32 [ %63, %.critedge ], [ %31, %.critedge.preheader ]
  %indvars.iv.next74 = add nuw nsw i64 %indvars.iv73, 1
  %36 = sext i32 %35 to i64
  %37 = icmp slt i64 %indvars.iv.next74, %36
  %38 = trunc nuw nsw i64 %indvars.iv73 to i32
  br i1 %37, label %.lr.ph61.preheader, label %._crit_edge

.lr.ph61.preheader:                               ; preds = %.lr.ph64
  %wide.trip.count = zext i32 %35 to i64
  br label %.lr.ph61

.lr.ph61:                                         ; preds = %.lr.ph61.preheader, %.lr.ph61
  %indvars.iv70 = phi i64 [ %indvars.iv68, %.lr.ph61.preheader ], [ %indvars.iv.next71, %.lr.ph61 ]
  %.04560 = phi i32 [ %38, %.lr.ph61.preheader ], [ %.146, %.lr.ph61 ]
  %39 = getelementptr inbounds nuw i32, ptr %2, i64 %indvars.iv70
  %40 = load i32, ptr %39, align 4, !tbaa !29
  %41 = sext i32 %40 to i64
  %42 = getelementptr inbounds float, ptr %3, i64 %41
  %43 = load float, ptr %42, align 4, !tbaa !34
  %44 = sext i32 %.04560 to i64
  %45 = getelementptr inbounds i32, ptr %2, i64 %44
  %46 = load i32, ptr %45, align 4, !tbaa !29
  %47 = sext i32 %46 to i64
  %48 = getelementptr inbounds float, ptr %3, i64 %47
  %49 = load float, ptr %48, align 4, !tbaa !34
  %50 = fcmp ogt float %43, %49
  %51 = trunc nuw nsw i64 %indvars.iv70 to i32
  %.146 = select i1 %50, i32 %51, i32 %.04560
  %indvars.iv.next71 = add nuw nsw i64 %indvars.iv70, 1
  %exitcond.not = icmp eq i64 %indvars.iv.next71, %wide.trip.count
  br i1 %exitcond.not, label %._crit_edge, label %.lr.ph61, !llvm.loop !37

._crit_edge:                                      ; preds = %.lr.ph61, %.lr.ph64
  %.045.lcssa = phi i32 [ %38, %.lr.ph64 ], [ %.146, %.lr.ph61 ]
  %52 = zext i32 %.045.lcssa to i64
  %53 = icmp eq i64 %indvars.iv73, %52
  br i1 %53, label %.critedge, label %54

54:                                               ; preds = %._crit_edge
  %55 = getelementptr inbounds nuw i32, ptr %2, i64 %indvars.iv73
  %56 = load i32, ptr %55, align 4, !tbaa !29
  %57 = sext i32 %.045.lcssa to i64
  %58 = getelementptr inbounds i32, ptr %2, i64 %57
  %59 = load i32, ptr %58, align 4, !tbaa !29
  store i32 %59, ptr %55, align 4, !tbaa !29
  store i32 %56, ptr %58, align 4, !tbaa !29
  %.pre = load i32, ptr %8, align 4, !tbaa !29
  br label %.critedge

.critedge:                                        ; preds = %._crit_edge, %54
  %60 = phi i32 [ %34, %._crit_edge ], [ %.pre, %54 ]
  %61 = sext i32 %60 to i64
  %62 = getelementptr inbounds i32, ptr %.val.val, i64 %61
  %63 = load i32, ptr %62, align 4, !tbaa !29
  %64 = add nsw i32 %63, -1
  %65 = sext i32 %64 to i64
  %66 = icmp slt i64 %indvars.iv.next74, %65
  %indvars.iv.next69 = add nuw nsw i64 %indvars.iv68, 1
  br i1 %66, label %.lr.ph64, label %.preheader, !llvm.loop !38
}